; Function Attrs: null_pointer_is_valid sspstrong uwtable
define internal fastcc noundef zeroext i1 @dissect_bap_fixed_opt(ptr noundef %0, ptr noundef %1, ptr noundef %2, i32 noundef %3, i32 noundef %4, i32 noundef range(i32 2, 6) %5, ptr noundef writeonly captures(none) %6, ptr noundef writeonly captures(none) %7) unnamed_addr #1 {
  %9 = tail call i32 @tvb_reported_length(ptr noundef %0)
  %.not.i = icmp eq i32 %9, %5
  br i1 %.not.i, label %15, label %ppp_option_len_check.exit

ppp_option_len_check.exit:                        ; preds = %8
  %10 = tail call ptr @find_protocol_by_id(i32 noundef %3)
  %11 = tail call ptr @proto_get_protocol_short_name(ptr noundef %10)
  %12 = icmp eq i32 %9, 1
  %13 = select i1 %12, ptr @.str.1006, ptr @.str.1007
  %14 = tail call ptr (ptr, ptr, ptr, ptr, i32, i32, ptr, ...) @proto_tree_add_expert_format(ptr noundef %2, ptr noundef %1, ptr noundef nonnull @ei_ppp_opt_len_invalid, ptr noundef %0, i32 noundef 0, i32 noundef %9, ptr noundef nonnull @.str.1318, ptr noundef %11, i32 noundef %9, ptr noundef nonnull %13, i32 noundef range(i32 2, 11) %5)
  br label %25

15:                                               ; preds = %8
  %16 = tail call ptr @proto_tree_add_item(ptr noundef %2, i32 noundef %3, ptr noundef %0, i32 noundef 0, i32 noundef %5, i32 noundef 0)
  store ptr %16, ptr %7, align 8
  %17 = tail call ptr @proto_item_add_subtree(ptr noundef %16, i32 noundef %4)
  store ptr %17, ptr %6, align 8
  %18 = tail call ptr @proto_registrar_get_name(i32 noundef %3)
  %19 = tail call zeroext i8 @tvb_get_uint8(ptr noundef %0, i32 noundef 0)
  %20 = load i32, ptr @hf_bap_opt_type, align 4
  %21 = zext i8 %19 to i32
  %22 = tail call ptr (ptr, i32, ptr, i32, i32, i32, ptr, ...) @proto_tree_add_uint_format_value(ptr noundef %17, i32 noundef %20, ptr noundef %0, i32 noundef 0, i32 noundef 1, i32 noundef %21, ptr noundef nonnull @.str.1295, ptr noundef %18, i32 noundef %21)
  %23 = load i32, ptr @hf_bap_opt_length, align 4
  %24 = tail call ptr @proto_tree_add_item(ptr noundef %17, i32 noundef %23, ptr noundef %0, i32 noundef 1, i32 noundef 1, i32 noundef 0)
  br label %25

25:                                               ; preds = %ppp_option_len_check.exit, %15
  ret i1 %.not.i
}